target datalayout = "e-m:e-p270:32:32-p271:32:32-p272:64:64-i64:64-i128:128-f80:128-n8:16:32:64-S128"
target triple = "x86_64-unknown-linux-gnu"

%"class.bv::ackerman" = type { ptr, %class.hashtable, ptr, ptr, i32, i32, i32, i32, %class.svector }
%class.hashtable = type { %class.core_hashtable.base, [4 x i8] }
%class.core_hashtable.base = type <{ ptr, i32, i32, i32 }>
%class.svector = type { %class.vector }
%class.vector = type { ptr }
%"struct.bv::ackerman::vv" = type { %class.dll_base, i32, i32, i32, i32 }
%class.dll_base = type { ptr, ptr }

; Function Attrs: mustprogress nounwind uwtable
define linkonce_odr hidden void @_ZN8dll_baseIN2bv8ackerman2vvEEC2Ev(ptr noundef nonnull align 8 dereferenceable(16) %this) unnamed_addr #4 comdat align 2 {
entry:
  %this.addr = alloca ptr, align 8
  store ptr %this, ptr %this.addr, align 8
  %this1 = load ptr, ptr %this.addr, align 8
  %m_next = getelementptr inbounds %class.dll_base, ptr %this1, i32 0, i32 0
  store ptr null, ptr %m_next, align 8
  %m_prev = getelementptr inbounds %class.dll_base, ptr %this1, i32 0, i32 1
  store ptr null, ptr %m_prev, align 8
  ret void
}

; Function Attrs: mustprogress nounwind uwtable
define linkonce_odr hidden void @_ZN8dll_baseIN2bv8ackerman2vvEE4initEPS2_(ptr noundef nonnull align 8 dereferenceable(16) %this, ptr noundef %t) #4 comdat align 2 {
entry:
  %this.addr = alloca ptr, align 8
  %t.addr = alloca ptr, align 8
  store ptr %this, ptr %this.addr, align 8
  store ptr %t, ptr %t.addr, align 8
  %this1 = load ptr, ptr %this.addr, align 8
  %0 = load ptr, ptr %t.addr, align 8
  %m_next = getelementptr inbounds %class.dll_base, ptr %this1, i32 0, i32 0
  store ptr %0, ptr %m_next, align 8
  %1 = load ptr, ptr %t.addr, align 8
  %m_prev = getelementptr inbounds %class.dll_base, ptr %this1, i32 0, i32 1
  store ptr %1, ptr %m_prev, align 8
  ret void
}

; Function Attrs: mustprogress nounwind uwtable
define linkonce_odr hidden void @_ZN2bv8ackerman2vvC2Ev(ptr noundef nonnull align 8 dereferenceable(32) %this) unnamed_addr #4 comdat align 2 {
entry:
  %this.addr = alloca ptr, align 8
  store ptr %this, ptr %this.addr, align 8
  %this1 = load ptr, ptr %this.addr, align 8
  call void @_ZN8dll_baseIN2bv8ackerman2vvEEC2Ev(ptr noundef nonnull align 8 dereferenceable(16) %this1) #3
  %v1 = getelementptr inbounds %"struct.bv::ackerman::vv", ptr %this1, i32 0, i32 1
  store i32 -1, ptr %v1, align 8
  %v2 = getelementptr inbounds %"struct.bv::ackerman::vv", ptr %this1, i32 0, i32 2
  store i32 -1, ptr %v2, align 4
  %m_count = getelementptr inbounds %"struct.bv::ackerman::vv", ptr %this1, i32 0, i32 3
  store i32 0, ptr %m_count, align 8
  %m_glue = getelementptr inbounds %"struct.bv::ackerman::vv", ptr %this1, i32 0, i32 4
  store i32 -1, ptr %m_glue, align 4
  ret void
}

; Function Attrs: mustprogress uwtable
define hidden void @_ZN2bv8ackerman7new_tmpEv(ptr noundef nonnull align 8 dereferenceable(72) %this) #5 align 2 {
entry:
  %this.addr = alloca ptr, align 8
  store ptr %this, ptr %this.addr, align 8
  %this1 = load ptr, ptr %this.addr, align 8
  %call = call noalias noundef ptr @_ZN6memory8allocateEm(i64 noundef 32)
  call void @_ZN2bv8ackerman2vvC2Ev(ptr noundef nonnull align 8 dereferenceable(32) %call)
  %m_tmp_vv = getelementptr inbounds %"class.bv::ackerman", ptr %this1, i32 0, i32 3
  store ptr %call, ptr %m_tmp_vv, align 8
  %m_tmp_vv2 = getelementptr inbounds %"class.bv::ackerman", ptr %this1, i32 0, i32 3
  %0 = load ptr, ptr %m_tmp_vv2, align 8
  %m_tmp_vv3 = getelementptr inbounds %"class.bv::ackerman", ptr %this1, i32 0, i32 3
  %1 = load ptr, ptr %m_tmp_vv3, align 8
  call void @_ZN8dll_baseIN2bv8ackerman2vvEE4initEPS2_(ptr noundef nonnull align 8 dereferenceable(16) %0, ptr noundef %1)
  %m_tmp_vv4 = getelementptr inbounds %"class.bv::ackerman", ptr %this1, i32 0, i32 3
  %2 = load ptr, ptr %m_tmp_vv4, align 8
  %m_count = getelementptr inbounds %"struct.bv::ackerman::vv", ptr %2, i32 0, i32 3
  store i32 0, ptr %m_count, align 8
  %m_tmp_vv5 = getelementptr inbounds %"class.bv::ackerman", ptr %this1, i32 0, i32 3
  %3 = load ptr, ptr %m_tmp_vv5, align 8
  %m_glue = getelementptr inbounds %"struct.bv::ackerman::vv", ptr %3, i32 0, i32 4
  store i32 -1, ptr %m_glue, align 4
  ret void
}