; Function Attrs: mustprogress uwtable
define hidden void @_ZN2bv8ackerman7new_tmpEv(ptr nocapture noundef nonnull writeonly align 8 dereferenceable(72) %this) local_unnamed_addr #3 align 2 {
entry:
  %call = tail call noalias noundef ptr @_ZN6memory8allocateEm(i64 noundef 32)
  %v1.i = getelementptr inbounds i8, ptr %call, i64 16
  %m_tmp_vv = getelementptr inbounds i8, ptr %this, i64 40
  store ptr %call, ptr %m_tmp_vv, align 8
  store ptr %call, ptr %call, align 8
  %m_prev.i = getelementptr inbounds i8, ptr %call, i64 8
  store ptr %call, ptr %m_prev.i, align 8
  store <4 x i32> <i32 -1, i32 -1, i32 0, i32 -1>, ptr %v1.i, align 8
  ret void
}